target datalayout = "e-m:e-p270:32:32-p271:32:32-p272:64:64-i64:64-i128:128-f80:128-n8:16:32:64-S128"
target triple = "x86_64-pc-linux-gnu"

%class.GrowableCache = type { ptr, ptr, ptr, ptr }
%class.GrowableArrayBase = type { i32, i32 }
%class.GrowableArrayView = type { %class.GrowableArrayBase, ptr }
%class.anon = type { ptr }
%class.VM_ChangeBreakpoints = type { %class.VM_Operation, ptr, i32, ptr }
%class.VM_Operation = type { ptr, ptr }
%class.JvmtiBreakpoints = type { [8 x i8], %class.JvmtiBreakpointCache }
%class.JvmtiBreakpointCache = type { %class.GrowableCache }

@_ZN23JvmtiCurrentBreakpoints18_jvmti_breakpointsE = hidden global ptr null, align 8
@_ZTV12VM_Operation = external unnamed_addr constant { [12 x ptr] }, align 8
@_ZN16JvmtiBreakpointsC1EPFvPvPPhE = hidden unnamed_addr alias void (ptr, ptr), ptr @_ZN16JvmtiBreakpointsC2EPFvPvPPhE

; Function Attrs: mustprogress nounwind uwtable
define internal noundef zeroext i1 @"_ZZNK13GrowableCache4findEPK15GrowableElementENK3$_0clES2_"(ptr noundef nonnull align 8 dereferenceable(8) %0, ptr noundef %1) #1 align 2 {
  %3 = alloca ptr, align 8
  %4 = alloca ptr, align 8
  store ptr %0, ptr %3, align 8
  store ptr %1, ptr %4, align 8
  %5 = load ptr, ptr %3, align 8
  %6 = getelementptr inbounds %class.anon, ptr %5, i32 0, i32 0
  %7 = load ptr, ptr %6, align 8
  %8 = load ptr, ptr %7, align 8
  %9 = load ptr, ptr %4, align 8
  %10 = load ptr, ptr %8, align 8
  %11 = getelementptr inbounds ptr, ptr %10, i64 3
  %12 = load ptr, ptr %11, align 8
  %13 = call noundef zeroext i1 %12(ptr noundef nonnull align 8 dereferenceable(8) %8, ptr noundef %9)
  ret i1 %13
}

; Function Attrs: mustprogress nounwind uwtable
define internal noundef i32 @"_ZNK17GrowableArrayViewIP15GrowableElementE7find_ifIZNK13GrowableCache4findEPKS0_E3$_0EEiT_"(ptr noundef nonnull align 8 dereferenceable(16) %0, ptr %1) #1 align 2 {
  %3 = alloca i32, align 4
  %4 = alloca %class.anon, align 8
  %5 = alloca ptr, align 8
  %6 = alloca i32, align 4
  %7 = getelementptr inbounds %class.anon, ptr %4, i32 0, i32 0
  store ptr %1, ptr %7, align 8
  store ptr %0, ptr %5, align 8
  %8 = load ptr, ptr %5, align 8
  store i32 0, ptr %6, align 4
  br label %9

9:                                                ; preds = %25, %2
  %10 = load i32, ptr %6, align 4
  %11 = getelementptr inbounds %class.GrowableArrayBase, ptr %8, i32 0, i32 0
  %12 = load i32, ptr %11, align 8
  %13 = icmp slt i32 %10, %12
  br i1 %13, label %14, label %28

14:                                               ; preds = %9
  %15 = getelementptr inbounds %class.GrowableArrayView, ptr %8, i32 0, i32 1
  %16 = load ptr, ptr %15, align 8
  %17 = load i32, ptr %6, align 4
  %18 = sext i32 %17 to i64
  %19 = getelementptr inbounds ptr, ptr %16, i64 %18
  %20 = load ptr, ptr %19, align 8
  %21 = call noundef zeroext i1 @"_ZZNK13GrowableCache4findEPK15GrowableElementENK3$_0clES2_"(ptr noundef nonnull align 8 dereferenceable(8) %4, ptr noundef %20)
  br i1 %21, label %22, label %24

22:                                               ; preds = %14
  %23 = load i32, ptr %6, align 4
  store i32 %23, ptr %3, align 4
  br label %29

24:                                               ; preds = %14
  br label %25

25:                                               ; preds = %24
  %26 = load i32, ptr %6, align 4
  %27 = add nsw i32 %26, 1
  store i32 %27, ptr %6, align 4
  br label %9, !llvm.loop !9

28:                                               ; preds = %9
  store i32 -1, ptr %3, align 4
  br label %29

29:                                               ; preds = %28, %22
  %30 = load i32, ptr %3, align 4
  ret i32 %30
}

; Function Attrs: mustprogress nounwind uwtable
define hidden noundef nonnull align 8 dereferenceable(40) ptr @_ZN23JvmtiCurrentBreakpoints21get_jvmti_breakpointsEv() #1 align 2 {
  %1 = alloca i64, align 8
  %2 = alloca i8, align 1
  %3 = alloca i64, align 8
  %4 = alloca ptr, align 8
  %5 = load ptr, ptr @_ZN23JvmtiCurrentBreakpoints18_jvmti_breakpointsE, align 8
  %6 = icmp ne ptr %5, null
  br i1 %6, label %7, label %9

7:                                                ; preds = %0
  %8 = load ptr, ptr @_ZN23JvmtiCurrentBreakpoints18_jvmti_breakpointsE, align 8
  store ptr %8, ptr %4, align 8
  br label %15

9:                                                ; preds = %0
  store i64 40, ptr %3, align 8
  %10 = load i64, ptr %3, align 8
  store i64 %10, ptr %1, align 8
  store i8 9, ptr %2, align 1
  %11 = load i64, ptr %1, align 8
  %12 = load i8, ptr %2, align 1
  %13 = call noundef ptr @_Z12AllocateHeapm8MEMFLAGSN17AllocFailStrategy13AllocFailEnumE(i64 noundef %11, i8 noundef zeroext %12, i32 noundef 0) #10
  call void @_ZN16JvmtiBreakpointsC1EPFvPvPPhE(ptr noundef nonnull align 8 dereferenceable(40) %13, ptr noundef @_ZN23JvmtiCurrentBreakpoints12listener_funEPvPPh)
  store ptr %13, ptr @_ZN23JvmtiCurrentBreakpoints18_jvmti_breakpointsE, align 8
  %14 = load ptr, ptr @_ZN23JvmtiCurrentBreakpoints18_jvmti_breakpointsE, align 8
  store ptr %14, ptr %4, align 8
  br label %15

15:                                               ; preds = %9, %7
  %16 = load ptr, ptr %4, align 8
  ret ptr %16
}

; Function Attrs: mustprogress nounwind uwtable
define linkonce_odr hidden void @_ZN12VM_OperationC2Ev(ptr noundef nonnull align 8 dereferenceable(16) %0) unnamed_addr #1 comdat align 2 {
  %2 = alloca ptr, align 8
  store ptr %0, ptr %2, align 8
  %3 = load ptr, ptr %2, align 8
  store ptr getelementptr inbounds inrange(-16, 80) ({ [12 x ptr] }, ptr @_ZTV12VM_Operation, i32 0, i32 0, i32 2), ptr %3, align 8
  %4 = getelementptr inbounds %class.VM_Operation, ptr %3, i32 0, i32 1
  store ptr null, ptr %4, align 8
  ret void
}

; Function Attrs: mustprogress nounwind uwtable
define hidden noundef i32 @_ZNK13GrowableCache4findEPK15GrowableElement(ptr noundef nonnull align 8 dereferenceable(32) %0, ptr noundef %1) #1 align 2 {
  %3 = alloca ptr, align 8
  %4 = alloca ptr, align 8
  %5 = alloca %class.anon, align 8
  store ptr %0, ptr %3, align 8
  store ptr %1, ptr %4, align 8
  %6 = load ptr, ptr %3, align 8
  %7 = getelementptr inbounds %class.GrowableCache, ptr %6, i32 0, i32 1
  %8 = load ptr, ptr %7, align 8
  %9 = getelementptr inbounds %class.anon, ptr %5, i32 0, i32 0
  store ptr %4, ptr %9, align 8
  %10 = getelementptr inbounds %class.anon, ptr %5, i32 0, i32 0
  %11 = load ptr, ptr %10, align 8
  %12 = call noundef i32 @"_ZNK17GrowableArrayViewIP15GrowableElementE7find_ifIZNK13GrowableCache4findEPKS0_E3$_0EEiT_"(ptr noundef nonnull align 8 dereferenceable(16) %8, ptr %11)
  ret i32 %12
}

; Function Attrs: mustprogress nounwind uwtable
define linkonce_odr hidden void @_ZN20VM_ChangeBreakpointsC2EiP15JvmtiBreakpoint(ptr noundef nonnull align 8 dereferenceable(40) %0, i32 noundef %1, ptr noundef %2) unnamed_addr #1 comdat align 2 {
  %4 = alloca ptr, align 8
  %5 = alloca i32, align 4
  %6 = alloca ptr, align 8
  %7 = alloca ptr, align 8
  store ptr %0, ptr %4, align 8
  store i32 %1, ptr %5, align 4
  store ptr %2, ptr %6, align 8
  %8 = load ptr, ptr %4, align 8
  call void @_ZN12VM_OperationC2Ev(ptr noundef nonnull align 8 dereferenceable(16) %8)
  store ptr getelementptr inbounds inrange(-16, 80) ({ [12 x ptr] }, ptr @_ZTV20VM_ChangeBreakpoints, i32 0, i32 0, i32 2), ptr %8, align 8
  %9 = call noundef nonnull align 8 dereferenceable(40) ptr @_ZN23JvmtiCurrentBreakpoints21get_jvmti_breakpointsEv()
  store ptr %9, ptr %7, align 8
  %10 = load ptr, ptr %7, align 8
  %11 = getelementptr inbounds %class.VM_ChangeBreakpoints, ptr %8, i32 0, i32 1
  store ptr %10, ptr %11, align 8
  %12 = load ptr, ptr %6, align 8
  %13 = getelementptr inbounds %class.VM_ChangeBreakpoints, ptr %8, i32 0, i32 3
  store ptr %12, ptr %13, align 8
  %14 = load i32, ptr %5, align 4
  %15 = getelementptr inbounds %class.VM_ChangeBreakpoints, ptr %8, i32 0, i32 2
  store i32 %14, ptr %15, align 8
  ret void
}

; Function Attrs: mustprogress nounwind uwtable
define linkonce_odr hidden noundef i32 @_ZN20JvmtiBreakpointCache4findER15JvmtiBreakpoint(ptr noundef nonnull align 8 dereferenceable(32) %0, ptr noundef nonnull align 8 dereferenceable(32) %1) #1 comdat align 2 {
  %3 = alloca ptr, align 8
  %4 = alloca ptr, align 8
  store ptr %0, ptr %3, align 8
  store ptr %1, ptr %4, align 8
  %5 = load ptr, ptr %3, align 8
  %6 = getelementptr inbounds %class.JvmtiBreakpointCache, ptr %5, i32 0, i32 0
  %7 = load ptr, ptr %4, align 8
  %8 = call noundef i32 @_ZNK13GrowableCache4findEPK15GrowableElement(ptr noundef nonnull align 8 dereferenceable(32) %6, ptr noundef %7)
  ret i32 %8
}

; Function Attrs: mustprogress nounwind uwtable
define hidden noundef i32 @_ZN16JvmtiBreakpoints3setER15JvmtiBreakpoint(ptr noundef nonnull align 8 dereferenceable(40) %0, ptr noundef nonnull align 8 dereferenceable(32) %1) #1 align 2 {
  %3 = alloca i32, align 4
  %4 = alloca ptr, align 8
  %5 = alloca ptr, align 8
  %6 = alloca %class.VM_ChangeBreakpoints, align 8
  store ptr %0, ptr %4, align 8
  store ptr %1, ptr %5, align 8
  %7 = load ptr, ptr %4, align 8
  %8 = getelementptr inbounds %class.JvmtiBreakpoints, ptr %7, i32 0, i32 1
  %9 = load ptr, ptr %5, align 8
  %10 = call noundef i32 @_ZN20JvmtiBreakpointCache4findER15JvmtiBreakpoint(ptr noundef nonnull align 8 dereferenceable(32) %8, ptr noundef nonnull align 8 dereferenceable(32) %9)
  %11 = icmp ne i32 %10, -1
  br i1 %11, label %12, label %13

12:                                               ; preds = %2
  store i32 40, ptr %3, align 4
  br label %15

13:                                               ; preds = %2
  %14 = load ptr, ptr %5, align 8
  call void @_ZN20VM_ChangeBreakpointsC2EiP15JvmtiBreakpoint(ptr noundef nonnull align 8 dereferenceable(40) %6, i32 noundef 0, ptr noundef %14)
  call void @_ZN8VMThread7executeEP12VM_Operation(ptr noundef %6)
  store i32 0, ptr %3, align 4
  br label %15

15:                                               ; preds = %13, %12
  %16 = load i32, ptr %3, align 4
  ret i32 %16
}