; Function Attrs: mustprogress nounwind uwtable
define hidden noundef range(i32 0, 41) i32 @_ZN16JvmtiBreakpoints3setER15JvmtiBreakpoint(ptr nocapture noundef nonnull readonly align 8 dereferenceable(40) %0, ptr noundef nonnull align 8 dereferenceable(32) %1) local_unnamed_addr #0 align 2 {
  %3 = alloca %class.VM_ChangeBreakpoints, align 8
  %4 = getelementptr inbounds i8, ptr %0, i64 16
  %5 = load ptr, ptr %4, align 8
  %6 = load i32, ptr %5, align 8
  %7 = icmp sgt i32 %6, 0
  br i1 %7, label %.lr.ph.i.i.i, label %_ZN20JvmtiBreakpointCache4findER15JvmtiBreakpoint.exit.thread

.lr.ph.i.i.i:                                     ; preds = %2
  %8 = getelementptr inbounds i8, ptr %5, i64 8
  br label %9

9:                                                ; preds = %17, %.lr.ph.i.i.i
  %indvars.iv.i.i.i = phi i64 [ 0, %.lr.ph.i.i.i ], [ %indvars.iv.next.i.i.i, %17 ]
  %10 = load ptr, ptr %8, align 8
  %11 = getelementptr inbounds ptr, ptr %10, i64 %indvars.iv.i.i.i
  %12 = load ptr, ptr %11, align 8
  %13 = load ptr, ptr %1, align 8
  %14 = getelementptr inbounds i8, ptr %13, i64 24
  %15 = load ptr, ptr %14, align 8
  %16 = tail call noundef zeroext i1 %15(ptr noundef nonnull align 8 dereferenceable(8) %1, ptr noundef %12) #17
  br i1 %16, label %_ZN20JvmtiBreakpointCache4findER15JvmtiBreakpoint.exit, label %17

17:                                               ; preds = %9
  %indvars.iv.next.i.i.i = add nuw nsw i64 %indvars.iv.i.i.i, 1
  %18 = load i32, ptr %5, align 8
  %19 = sext i32 %18 to i64
  %20 = icmp slt i64 %indvars.iv.next.i.i.i, %19
  br i1 %20, label %9, label %_ZN20JvmtiBreakpointCache4findER15JvmtiBreakpoint.exit.thread, !llvm.loop !13

_ZN20JvmtiBreakpointCache4findER15JvmtiBreakpoint.exit.thread: ; preds = %17, %2
  %21 = getelementptr inbounds i8, ptr %3, i64 8
  store ptr null, ptr %21, align 8
  store ptr getelementptr inbounds inrange(-16, 80) (i8, ptr @_ZTV20VM_ChangeBreakpoints, i64 16), ptr %3, align 8
  %22 = load ptr, ptr @_ZN23JvmtiCurrentBreakpoints18_jvmti_breakpointsE, align 8
  %.not.i.i = icmp eq ptr %22, null
  br i1 %.not.i.i, label %23, label %_ZN20VM_ChangeBreakpointsC2EiP15JvmtiBreakpoint.exit

23:                                               ; preds = %_ZN20JvmtiBreakpointCache4findER15JvmtiBreakpoint.exit.thread
  %24 = tail call noundef ptr @_Z12AllocateHeapm8MEMFLAGSN17AllocFailStrategy13AllocFailEnumE(i64 noundef 40, i8 noundef zeroext 9, i32 noundef 0) #17
  %25 = getelementptr inbounds i8, ptr %24, i64 8
  %26 = getelementptr inbounds i8, ptr %24, i64 16
  tail call void @llvm.memset.p0.i64(ptr noundef nonnull align 8 dereferenceable(32) %26, i8 0, i64 16, i1 false)
  store ptr %24, ptr %25, align 8
  %27 = getelementptr inbounds i8, ptr %24, i64 32
  store ptr @_ZN23JvmtiCurrentBreakpoints12listener_funEPvPPh, ptr %27, align 8
  %28 = tail call noundef ptr @_ZN6AnyObjnwEm8MEMFLAGS(i64 noundef 24, i8 noundef zeroext 23) #17
  %29 = icmp eq ptr %28, null
  br i1 %29, label %_ZN16JvmtiBreakpointsC2EPFvPvPPhE.exit.i.i, label %30

30:                                               ; preds = %23
  %31 = tail call noundef ptr @_ZN27GrowableArrayCHeapAllocator8allocateEii8MEMFLAGS(i32 noundef 5, i32 noundef 8, i8 noundef zeroext 23) #17
  store i32 0, ptr %28, align 4
  %32 = getelementptr inbounds i8, ptr %28, i64 4
  store i32 5, ptr %32, align 4
  %33 = getelementptr inbounds i8, ptr %28, i64 8
  store ptr %31, ptr %33, align 8
  tail call void @llvm.memset.p0.i64(ptr noundef nonnull align 8 dereferenceable(40) %31, i8 0, i64 40, i1 false)
  %34 = getelementptr inbounds i8, ptr %28, i64 16
  store i64 47, ptr %34, align 8
  br label %_ZN16JvmtiBreakpointsC2EPFvPvPPhE.exit.i.i

_ZN16JvmtiBreakpointsC2EPFvPvPPhE.exit.i.i:       ; preds = %30, %23
  store ptr %28, ptr %26, align 8
  tail call void @_ZN13GrowableCache7recacheEv(ptr noundef nonnull align 8 dereferenceable(32) %25)
  store ptr %24, ptr @_ZN23JvmtiCurrentBreakpoints18_jvmti_breakpointsE, align 8
  br label %_ZN20VM_ChangeBreakpointsC2EiP15JvmtiBreakpoint.exit

_ZN20VM_ChangeBreakpointsC2EiP15JvmtiBreakpoint.exit: ; preds = %_ZN20JvmtiBreakpointCache4findER15JvmtiBreakpoint.exit.thread, %_ZN16JvmtiBreakpointsC2EPFvPvPPhE.exit.i.i
  %.0.i.i = phi ptr [ %24, %_ZN16JvmtiBreakpointsC2EPFvPvPPhE.exit.i.i ], [ %22, %_ZN20JvmtiBreakpointCache4findER15JvmtiBreakpoint.exit.thread ]
  %35 = getelementptr inbounds i8, ptr %3, i64 16
  store ptr %.0.i.i, ptr %35, align 8
  %36 = getelementptr inbounds i8, ptr %3, i64 32
  store ptr %1, ptr %36, align 8
  %37 = getelementptr inbounds i8, ptr %3, i64 24
  store i32 0, ptr %37, align 8
  call void @_ZN8VMThread7executeEP12VM_Operation(ptr noundef nonnull %3) #17
  br label %_ZN20JvmtiBreakpointCache4findER15JvmtiBreakpoint.exit

_ZN20JvmtiBreakpointCache4findER15JvmtiBreakpoint.exit: ; preds = %9, %_ZN20VM_ChangeBreakpointsC2EiP15JvmtiBreakpoint.exit
  %.0 = phi i32 [ 0, %_ZN20VM_ChangeBreakpointsC2EiP15JvmtiBreakpoint.exit ], [ 40, %9 ]
  ret i32 %.0
}